target datalayout = "e-m:e-p270:32:32-p271:32:32-p272:64:64-i64:64-i128:128-f80:128-n8:16:32:64-S128"
target triple = "x86_64-pc-linux-gnu"

%struct.ossl_qrx_st = type { ptr, ptr, ptr, i64, i64, i64, %struct.ossl_list_st_urxe, %struct.ossl_list_st_urxe, %struct.ossl_list_st_rxe, %struct.ossl_list_st_rxe, [3 x i64], %struct.ossl_qrl_enc_level_set_st, i64, i64, i64, ptr, ptr, ptr, ptr, i8, i8, ptr, ptr, ptr }
%struct.ossl_list_st_urxe = type { ptr, ptr, i64 }
%struct.ossl_list_st_rxe = type { ptr, ptr, i64 }
%struct.ossl_qrl_enc_level_set_st = type { [4 x %struct.ossl_qrl_enc_level_st] }
%struct.ossl_qrl_enc_level_st = type { %struct.quic_hdr_protector_st, ptr, [2 x ptr], ptr, ptr, i64, i64, i32, i32, i8, i8, [2 x [16 x i8]], [64 x i8] }
%struct.quic_hdr_protector_st = type { ptr, ptr, ptr, ptr, i32 }

; Function Attrs: nounwind uwtable
define i64 @ossl_qrx_get_key_epoch(ptr noundef %0) #0 {
  %2 = alloca ptr, align 8
  %3 = alloca ptr, align 8
  store ptr %0, ptr %2, align 8, !tbaa !15
  call void @llvm.lifetime.start.p0(i64 8, ptr %3) #8
  %4 = load ptr, ptr %2, align 8, !tbaa !15
  %5 = getelementptr inbounds nuw %struct.ossl_qrx_st, ptr %4, i32 0, i32 11
  %6 = call ptr @ossl_qrl_enc_level_set_get(ptr noundef %5, i32 noundef 3, i32 noundef 1)
  store ptr %6, ptr %3, align 8, !tbaa !101
  %7 = load ptr, ptr %3, align 8, !tbaa !101
  %8 = icmp eq ptr %7, null
  br i1 %8, label %9, label %10

9:                                                ; preds = %1
  br label %14

10:                                               ; preds = %1
  %11 = load ptr, ptr %3, align 8, !tbaa !101
  %12 = getelementptr inbounds nuw %struct.ossl_qrl_enc_level_st, ptr %11, i32 0, i32 5
  %13 = load i64, ptr %12, align 8, !tbaa !103
  br label %14

14:                                               ; preds = %10, %9
  %15 = phi i64 [ -1, %9 ], [ %13, %10 ]
  call void @llvm.lifetime.end.p0(i64 8, ptr %3) #8
  ret i64 %15
}